; Function Attrs: mustprogress norecurse uwtable
define dso_local noundef range(i32 0, 2) i32 @main() local_unnamed_addr #4 personality ptr @__gxx_personality_v0 {
  %1 = alloca %"class.pxrInternal_v0_24__pxrReserved__::TfErrorMark", align 8
  %2 = alloca %"class.pxrInternal_v0_24__pxrReserved__::TfCallContext", align 8
  call void @_ZN32pxrInternal_v0_24__pxrReserved__11TfErrorMarkC1Ev(ptr noundef nonnull align 8 dereferenceable(8) %1)
  invoke fastcc void @_ZL9BasicTestv()
          to label %3 unwind label %25

3:                                                ; preds = %0
  %4 = invoke noundef nonnull align 8 dereferenceable(481) ptr @_ZN32pxrInternal_v0_24__pxrReserved__11TfSingletonINS_15TfDiagnosticMgrEE11GetInstanceEv()
          to label %.noexc unwind label %25

.noexc:                                           ; preds = %3
  %5 = load i64, ptr %1, align 8
  %6 = getelementptr inbounds nuw i8, ptr %4, i64 152
  %7 = load atomic i64, ptr %6 seq_cst, align 8
  %.not.i = icmp ult i64 %5, %7
  br i1 %.not.i, label %8, label %_ZNK32pxrInternal_v0_24__pxrReserved__11TfErrorMark7IsCleanEv.exit.thread

8:                                                ; preds = %.noexc
  %9 = invoke noundef zeroext i1 @_ZNK32pxrInternal_v0_24__pxrReserved__11TfErrorMark12_IsCleanImplERNS_15TfDiagnosticMgrE(ptr noundef nonnull align 8 dereferenceable(8) %1, ptr noundef nonnull align 8 dereferenceable(481) %4)
          to label %_ZNK32pxrInternal_v0_24__pxrReserved__11TfErrorMark7IsCleanEv.exit unwind label %25

_ZNK32pxrInternal_v0_24__pxrReserved__11TfErrorMark7IsCleanEv.exit: ; preds = %8
  br i1 %9, label %_ZNK32pxrInternal_v0_24__pxrReserved__11TfErrorMark7IsCleanEv.exit.thread, label %10

10:                                               ; preds = %_ZNK32pxrInternal_v0_24__pxrReserved__11TfErrorMark7IsCleanEv.exit
  store ptr @.str, ptr %2, align 8
  %11 = getelementptr inbounds nuw i8, ptr %2, i64 8
  store ptr @__func__.main, ptr %11, align 8
  %12 = getelementptr inbounds nuw i8, ptr %2, i64 16
  store i64 187, ptr %12, align 8
  %13 = getelementptr inbounds nuw i8, ptr %2, i64 24
  store ptr @__PRETTY_FUNCTION__.main, ptr %13, align 8
  %14 = getelementptr inbounds nuw i8, ptr %2, i64 32
  store i8 0, ptr %14, align 8
  %15 = invoke noundef zeroext i1 @_ZN32pxrInternal_v0_24__pxrReserved__21Tf_FailedVerifyHelperERKNS_13TfCallContextEPKcS4_(ptr noundef nonnull align 8 dereferenceable(33) %2, ptr noundef nonnull @.str.4, ptr noundef null)
          to label %_ZNK32pxrInternal_v0_24__pxrReserved__11TfErrorMark7IsCleanEv.exit.thread unwind label %25

_ZNK32pxrInternal_v0_24__pxrReserved__11TfErrorMark7IsCleanEv.exit.thread: ; preds = %.noexc, %_ZNK32pxrInternal_v0_24__pxrReserved__11TfErrorMark7IsCleanEv.exit, %10
  %16 = invoke noundef nonnull align 8 dereferenceable(481) ptr @_ZN32pxrInternal_v0_24__pxrReserved__11TfSingletonINS_15TfDiagnosticMgrEE11GetInstanceEv()
          to label %.noexc5 unwind label %25

.noexc5:                                          ; preds = %_ZNK32pxrInternal_v0_24__pxrReserved__11TfErrorMark7IsCleanEv.exit.thread
  %17 = load i64, ptr %1, align 8
  %18 = getelementptr inbounds nuw i8, ptr %16, i64 152
  %19 = load atomic i64, ptr %18 seq_cst, align 8
  %.not.i4 = icmp ult i64 %17, %19
  br i1 %.not.i4, label %20, label %_ZNK32pxrInternal_v0_24__pxrReserved__11TfErrorMark7IsCleanEv.exit7.thread

20:                                               ; preds = %.noexc5
  %21 = invoke noundef zeroext i1 @_ZNK32pxrInternal_v0_24__pxrReserved__11TfErrorMark12_IsCleanImplERNS_15TfDiagnosticMgrE(ptr noundef nonnull align 8 dereferenceable(8) %1, ptr noundef nonnull align 8 dereferenceable(481) %16)
          to label %_ZNK32pxrInternal_v0_24__pxrReserved__11TfErrorMark7IsCleanEv.exit7 unwind label %25

_ZNK32pxrInternal_v0_24__pxrReserved__11TfErrorMark7IsCleanEv.exit7: ; preds = %20
  br i1 %21, label %_ZNK32pxrInternal_v0_24__pxrReserved__11TfErrorMark7IsCleanEv.exit7.thread, label %27

_ZNK32pxrInternal_v0_24__pxrReserved__11TfErrorMark7IsCleanEv.exit7.thread: ; preds = %.noexc5, %_ZNK32pxrInternal_v0_24__pxrReserved__11TfErrorMark7IsCleanEv.exit7
  %22 = invoke noundef nonnull align 8 dereferenceable(8) ptr @_ZStlsISt11char_traitsIcEERSt13basic_ostreamIcT_ES5_PKc(ptr noundef nonnull align 8 dereferenceable(8) @_ZSt4cout, ptr noundef nonnull @.str.5)
          to label %23 unwind label %25

23:                                               ; preds = %_ZNK32pxrInternal_v0_24__pxrReserved__11TfErrorMark7IsCleanEv.exit7.thread
  %24 = invoke noundef nonnull align 8 dereferenceable(8) ptr @_ZNSolsEPFRSoS_E(ptr noundef nonnull align 8 dereferenceable(8) %22, ptr noundef nonnull @_ZSt4endlIcSt11char_traitsIcEERSt13basic_ostreamIT_T0_ES6_)
          to label %31 unwind label %25

25:                                               ; preds = %0, %20, %_ZNK32pxrInternal_v0_24__pxrReserved__11TfErrorMark7IsCleanEv.exit.thread, %8, %3, %29, %27, %23, %_ZNK32pxrInternal_v0_24__pxrReserved__11TfErrorMark7IsCleanEv.exit7.thread, %10
  %26 = landingpad { ptr, i32 }
          cleanup
  call void @_ZN32pxrInternal_v0_24__pxrReserved__11TfErrorMarkD1Ev(ptr noundef nonnull align 8 dereferenceable(8) %1) #13
  resume { ptr, i32 } %26

27:                                               ; preds = %_ZNK32pxrInternal_v0_24__pxrReserved__11TfErrorMark7IsCleanEv.exit7
  %28 = invoke noundef nonnull align 8 dereferenceable(8) ptr @_ZStlsISt11char_traitsIcEERSt13basic_ostreamIcT_ES5_PKc(ptr noundef nonnull align 8 dereferenceable(8) @_ZSt4cout, ptr noundef nonnull @.str.6)
          to label %29 unwind label %25

29:                                               ; preds = %27
  %30 = invoke noundef nonnull align 8 dereferenceable(8) ptr @_ZNSolsEPFRSoS_E(ptr noundef nonnull align 8 dereferenceable(8) %28, ptr noundef nonnull @_ZSt4endlIcSt11char_traitsIcEERSt13basic_ostreamIT_T0_ES6_)
          to label %31 unwind label %25

31:                                               ; preds = %29, %23
  %.0 = phi i32 [ 0, %23 ], [ 1, %29 ]
  call void @_ZN32pxrInternal_v0_24__pxrReserved__11TfErrorMarkD1Ev(ptr noundef nonnull align 8 dereferenceable(8) %1) #13
  ret i32 %.0
}